target datalayout = "e-m:e-p270:32:32-p271:32:32-p272:64:64-i64:64-i128:128-f80:128-n8:16:32:64-S128"
target triple = "x86_64-pc-linux-gnu"

%struct.object_id = type { [32 x i8], i32 }
%struct.command = type { ptr, ptr, ptr, ptr, i8, i32, %struct.object_id, %struct.object_id, [0 x i8] }

@.str.75 = private unnamed_addr constant [47 x i8] c"protocol error: expected old/new/ref, got '%s'\00", align 1
@.str.76 = private unnamed_addr constant [27 x i8] c"size_t overflow: %lu + %lu\00", align 1

; Function Attrs: inlinehint nounwind uwtable
define internal void @oidcpy(ptr noundef %0, ptr noundef %1) #5 {
  %3 = alloca ptr, align 8
  %4 = alloca ptr, align 8
  store ptr %0, ptr %3, align 8, !tbaa !166
  store ptr %1, ptr %4, align 8, !tbaa !166
  %5 = load ptr, ptr %3, align 8, !tbaa !166
  %6 = getelementptr inbounds nuw %struct.object_id, ptr %5, i32 0, i32 0
  %7 = getelementptr inbounds [32 x i8], ptr %6, i64 0, i64 0
  %8 = load ptr, ptr %4, align 8, !tbaa !166
  %9 = getelementptr inbounds nuw %struct.object_id, ptr %8, i32 0, i32 0
  %10 = getelementptr inbounds [32 x i8], ptr %9, i64 0, i64 0
  call void @llvm.memcpy.p0.p0.i64(ptr align 4 %7, ptr align 4 %10, i64 32, i1 false)
  %11 = load ptr, ptr %4, align 8, !tbaa !166
  %12 = getelementptr inbounds nuw %struct.object_id, ptr %11, i32 0, i32 1
  %13 = load i32, ptr %12, align 4, !tbaa !172
  %14 = load ptr, ptr %3, align 8, !tbaa !166
  %15 = getelementptr inbounds nuw %struct.object_id, ptr %14, i32 0, i32 1
  store i32 %13, ptr %15, align 4, !tbaa !172
  ret void
}

; Function Attrs: inlinehint nounwind uwtable
define internal i64 @st_add(i64 noundef %0, i64 noundef %1) #5 {
  %3 = alloca i64, align 8
  %4 = alloca i64, align 8
  store i64 %0, ptr %3, align 8, !tbaa !53
  store i64 %1, ptr %4, align 8, !tbaa !53
  %5 = load i64, ptr %4, align 8, !tbaa !53
  %6 = load i64, ptr %3, align 8, !tbaa !53
  %7 = sub i64 -1, %6
  %8 = icmp ugt i64 %5, %7
  br i1 %8, label %9, label %12

9:                                                ; preds = %2
  %10 = load i64, ptr %3, align 8, !tbaa !53
  %11 = load i64, ptr %4, align 8, !tbaa !53
  call void (ptr, ...) @die(ptr noundef @.str.76, i64 noundef %10, i64 noundef %11) #16
  unreachable

12:                                               ; preds = %2
  %13 = load i64, ptr %3, align 8, !tbaa !53
  %14 = load i64, ptr %4, align 8, !tbaa !53
  %15 = add i64 %13, %14
  ret i64 %15
}

; Function Attrs: nounwind uwtable
define internal ptr @queue_command(ptr noundef %0, ptr noundef %1, i32 noundef %2) #0 {
  %4 = alloca ptr, align 8
  %5 = alloca ptr, align 8
  %6 = alloca i32, align 4
  %7 = alloca %struct.object_id, align 4
  %8 = alloca %struct.object_id, align 4
  %9 = alloca ptr, align 8
  %10 = alloca ptr, align 8
  %11 = alloca i32, align 4
  %12 = alloca ptr, align 8
  %13 = alloca i64, align 8
  store ptr %0, ptr %4, align 8, !tbaa !82
  store ptr %1, ptr %5, align 8, !tbaa !11
  store i32 %2, ptr %6, align 4, !tbaa !4
  call void @llvm.lifetime.start.p0(i64 36, ptr %7) #15
  call void @llvm.lifetime.start.p0(i64 36, ptr %8) #15
  call void @llvm.lifetime.start.p0(i64 8, ptr %9) #15
  call void @llvm.lifetime.start.p0(i64 8, ptr %10) #15
  call void @llvm.lifetime.start.p0(i64 4, ptr %11) #15
  call void @llvm.lifetime.start.p0(i64 8, ptr %12) #15
  %14 = load ptr, ptr %5, align 8, !tbaa !11
  %15 = call i32 @parse_oid_hex(ptr noundef %14, ptr noundef %7, ptr noundef %12)
  %16 = icmp ne i32 %15, 0
  br i1 %16, label %33, label %17

17:                                               ; preds = %3
  %18 = load ptr, ptr %12, align 8, !tbaa !11
  %19 = getelementptr inbounds nuw i8, ptr %18, i32 1
  store ptr %19, ptr %12, align 8, !tbaa !11
  %20 = load i8, ptr %18, align 1, !tbaa !44
  %21 = sext i8 %20 to i32
  %22 = icmp ne i32 %21, 32
  br i1 %22, label %33, label %23

23:                                               ; preds = %17
  %24 = load ptr, ptr %12, align 8, !tbaa !11
  %25 = call i32 @parse_oid_hex(ptr noundef %24, ptr noundef %8, ptr noundef %12)
  %26 = icmp ne i32 %25, 0
  br i1 %26, label %33, label %27

27:                                               ; preds = %23
  %28 = load ptr, ptr %12, align 8, !tbaa !11
  %29 = getelementptr inbounds nuw i8, ptr %28, i32 1
  store ptr %29, ptr %12, align 8, !tbaa !11
  %30 = load i8, ptr %28, align 1, !tbaa !44
  %31 = sext i8 %30 to i32
  %32 = icmp ne i32 %31, 32
  br i1 %32, label %33, label %35

33:                                               ; preds = %27, %23, %17, %3
  %34 = load ptr, ptr %5, align 8, !tbaa !11
  call void (ptr, ...) @die(ptr noundef @.str.75, ptr noundef %34) #16
  unreachable

35:                                               ; preds = %27
  %36 = load ptr, ptr %12, align 8, !tbaa !11
  store ptr %36, ptr %10, align 8, !tbaa !11
  %37 = load i32, ptr %6, align 4, !tbaa !4
  %38 = sext i32 %37 to i64
  %39 = load ptr, ptr %12, align 8, !tbaa !11
  %40 = load ptr, ptr %5, align 8, !tbaa !11
  %41 = ptrtoint ptr %39 to i64
  %42 = ptrtoint ptr %40 to i64
  %43 = sub i64 %41, %42
  %44 = sub nsw i64 %38, %43
  %45 = trunc i64 %44 to i32
  store i32 %45, ptr %11, align 4, !tbaa !4
  br label %46

46:                                               ; preds = %35
  call void @llvm.lifetime.start.p0(i64 8, ptr %13) #15
  %47 = load i32, ptr %11, align 4, !tbaa !4
  %48 = sext i32 %47 to i64
  store i64 %48, ptr %13, align 8, !tbaa !53
  %49 = load i64, ptr %13, align 8, !tbaa !53
  %50 = call i64 @st_add(i64 noundef 112, i64 noundef %49)
  %51 = call i64 @st_add(i64 noundef %50, i64 noundef 1)
  %52 = call ptr @xcalloc(i64 noundef 1, i64 noundef %51)
  store ptr %52, ptr %9, align 8, !tbaa !29
  %53 = load ptr, ptr %9, align 8, !tbaa !29
  %54 = getelementptr inbounds nuw %struct.command, ptr %53, i32 0, i32 8
  %55 = getelementptr inbounds [0 x i8], ptr %54, i64 0, i64 0
  %56 = load ptr, ptr %10, align 8, !tbaa !11
  %57 = load i64, ptr %13, align 8, !tbaa !53
  call void @llvm.memcpy.p0.p0.i64(ptr align 8 %55, ptr align 1 %56, i64 %57, i1 false)
  call void @llvm.lifetime.end.p0(i64 8, ptr %13) #15
  br label %58

58:                                               ; preds = %46
  br label %59

59:                                               ; preds = %58
  %60 = load ptr, ptr %9, align 8, !tbaa !29
  %61 = getelementptr inbounds nuw %struct.command, ptr %60, i32 0, i32 6
  call void @oidcpy(ptr noundef %61, ptr noundef %7)
  %62 = load ptr, ptr %9, align 8, !tbaa !29
  %63 = getelementptr inbounds nuw %struct.command, ptr %62, i32 0, i32 7
  call void @oidcpy(ptr noundef %63, ptr noundef %8)
  %64 = load ptr, ptr %9, align 8, !tbaa !29
  %65 = load ptr, ptr %4, align 8, !tbaa !82
  store ptr %64, ptr %65, align 8, !tbaa !29
  %66 = load ptr, ptr %9, align 8, !tbaa !29
  %67 = getelementptr inbounds nuw %struct.command, ptr %66, i32 0, i32 0
  call void @llvm.lifetime.end.p0(i64 8, ptr %12) #15
  call void @llvm.lifetime.end.p0(i64 4, ptr %11) #15
  call void @llvm.lifetime.end.p0(i64 8, ptr %10) #15
  call void @llvm.lifetime.end.p0(i64 8, ptr %9) #15
  call void @llvm.lifetime.end.p0(i64 36, ptr %8) #15
  call void @llvm.lifetime.end.p0(i64 36, ptr %7) #15
  ret ptr %67
}