; Function Attrs: nounwind uwtable
define internal fastcc ptr @queue_command(ptr noundef writeonly captures(none) %0, ptr noundef %1, i32 noundef %2) unnamed_addr #0 {
  %4 = alloca %struct.object_id, align 4
  %5 = alloca %struct.object_id, align 4
  %6 = alloca ptr, align 8
  call void @llvm.lifetime.start.p0(i64 36, ptr nonnull %4) #21
  call void @llvm.lifetime.start.p0(i64 36, ptr nonnull %5) #21
  call void @llvm.lifetime.start.p0(i64 8, ptr nonnull %6) #21
  %7 = call i32 @parse_oid_hex(ptr noundef %1, ptr noundef nonnull %4, ptr noundef nonnull %6) #21
  %.not = icmp eq i32 %7, 0
  br i1 %.not, label %8, label %18

8:                                                ; preds = %3
  %9 = load ptr, ptr %6, align 8, !tbaa !21
  %10 = getelementptr inbounds nuw i8, ptr %9, i64 1
  store ptr %10, ptr %6, align 8, !tbaa !21
  %11 = load i8, ptr %9, align 1, !tbaa !60
  %.not13 = icmp eq i8 %11, 32
  br i1 %.not13, label %12, label %18

12:                                               ; preds = %8
  %13 = call i32 @parse_oid_hex(ptr noundef nonnull %10, ptr noundef nonnull %5, ptr noundef nonnull %6) #21
  %.not14 = icmp eq i32 %13, 0
  br i1 %.not14, label %14, label %18

14:                                               ; preds = %12
  %15 = load ptr, ptr %6, align 8, !tbaa !21
  %16 = getelementptr inbounds nuw i8, ptr %15, i64 1
  store ptr %16, ptr %6, align 8, !tbaa !21
  %17 = load i8, ptr %15, align 1, !tbaa !60
  %.not15 = icmp eq i8 %17, 32
  br i1 %.not15, label %19, label %18

18:                                               ; preds = %14, %12, %8, %3
  call void (ptr, ...) @die(ptr noundef nonnull @.str.75, ptr noundef %1) #22
  unreachable

19:                                               ; preds = %14
  %20 = ptrtoint ptr %16 to i64
  %21 = ptrtoint ptr %1 to i64
  %.neg = sub i64 %21, %20
  %22 = trunc i64 %.neg to i32
  %23 = add i32 %2, %22
  %24 = sext i32 %23 to i64
  %25 = icmp ugt i32 %23, -113
  br i1 %25, label %26, label %st_add.exit

26:                                               ; preds = %19
  call void (ptr, ...) @die(ptr noundef nonnull @.str.76, i64 noundef 112, i64 noundef range(i64 -2147483648, 2147483648) %24) #22
  unreachable

st_add.exit:                                      ; preds = %19
  %27 = icmp eq i32 %23, -113
  br i1 %27, label %28, label %st_add.exit16

28:                                               ; preds = %st_add.exit
  call void (ptr, ...) @die(ptr noundef nonnull @.str.76, i64 noundef -1, i64 noundef 1) #22
  unreachable

st_add.exit16:                                    ; preds = %st_add.exit
  %29 = add nsw i64 %24, 113
  %30 = call ptr @xcalloc(i64 noundef 1, i64 noundef %29) #21
  %31 = getelementptr inbounds nuw i8, ptr %30, i64 112
  call void @llvm.memcpy.p0.p0.i64(ptr nonnull align 8 %31, ptr nonnull align 1 %16, i64 %24, i1 false)
  %32 = getelementptr inbounds nuw i8, ptr %30, i64 40
  call void @llvm.memcpy.p0.p0.i64(ptr noundef nonnull align 4 dereferenceable(32) %32, ptr noundef nonnull readonly align 4 dereferenceable(32) %4, i64 32, i1 false)
  %33 = getelementptr inbounds nuw i8, ptr %4, i64 32
  %34 = load i32, ptr %33, align 4, !tbaa !165
  %35 = getelementptr inbounds nuw i8, ptr %30, i64 72
  store i32 %34, ptr %35, align 4, !tbaa !165
  %36 = getelementptr inbounds nuw i8, ptr %30, i64 76
  call void @llvm.memcpy.p0.p0.i64(ptr noundef nonnull align 4 dereferenceable(32) %36, ptr noundef nonnull readonly align 4 dereferenceable(32) %5, i64 32, i1 false)
  %37 = getelementptr inbounds nuw i8, ptr %5, i64 32
  %38 = load i32, ptr %37, align 4, !tbaa !165
  %39 = getelementptr inbounds nuw i8, ptr %30, i64 108
  store i32 %38, ptr %39, align 4, !tbaa !165
  store ptr %30, ptr %0, align 8, !tbaa !26
  call void @llvm.lifetime.end.p0(i64 8, ptr nonnull %6) #21
  call void @llvm.lifetime.end.p0(i64 36, ptr nonnull %5) #21
  call void @llvm.lifetime.end.p0(i64 36, ptr nonnull %4) #21
  ret ptr %30
}